target datalayout = "e-m:e-p270:32:32-p271:32:32-p272:64:64-i64:64-i128:128-f80:128-n8:16:32:64-S128"
target triple = "x86_64-unknown-linux-gnu"

@_ZTIN6icu_7512NumberFormatE = external constant ptr
@_ZTIN6icu_7513DecimalFormatE = external constant ptr

; Function Attrs: mustprogress uwtable
define i32 @unum_getAttribute_75(ptr noundef %fmt, i32 noundef %attr) #0 {
entry:
  %retval = alloca i32, align 4
  %fmt.addr = alloca ptr, align 8
  %attr.addr = alloca i32, align 4
  %nf = alloca ptr, align 8
  %df = alloca ptr, align 8
  %ignoredStatus = alloca i32, align 4
  store ptr %fmt, ptr %fmt.addr, align 8
  store i32 %attr, ptr %attr.addr, align 4
  %0 = load ptr, ptr %fmt.addr, align 8
  store ptr %0, ptr %nf, align 8
  %1 = load i32, ptr %attr.addr, align 4
  %cmp = icmp eq i32 %1, 19
  br i1 %cmp, label %if.then, label %if.else

if.then:                                          ; preds = %entry
  %2 = load ptr, ptr %nf, align 8
  %vtable = load ptr, ptr %2, align 8
  %vfn = getelementptr inbounds ptr, ptr %vtable, i64 25
  %3 = load ptr, ptr %vfn, align 8
  %call = call noundef signext i8 %3(ptr noundef nonnull align 8 dereferenceable(356) %2)
  %conv = sext i8 %call to i32
  store i32 %conv, ptr %retval, align 4
  br label %return

if.else:                                          ; preds = %entry
  %4 = load i32, ptr %attr.addr, align 4
  %cmp1 = icmp eq i32 %4, 3
  br i1 %cmp1, label %if.then2, label %if.else4

if.then2:                                         ; preds = %if.else
  %5 = load ptr, ptr %nf, align 8
  %call3 = call noundef i32 @_ZNK6icu_7512NumberFormat23getMaximumIntegerDigitsEv(ptr noundef nonnull align 8 dereferenceable(356) %5)
  store i32 %call3, ptr %retval, align 4
  br label %return

if.else4:                                         ; preds = %if.else
  %6 = load i32, ptr %attr.addr, align 4
  %cmp5 = icmp eq i32 %6, 4
  br i1 %cmp5, label %if.then6, label %if.else8

if.then6:                                         ; preds = %if.else4
  %7 = load ptr, ptr %nf, align 8
  %call7 = call noundef i32 @_ZNK6icu_7512NumberFormat23getMinimumIntegerDigitsEv(ptr noundef nonnull align 8 dereferenceable(356) %7)
  store i32 %call7, ptr %retval, align 4
  br label %return

if.else8:                                         ; preds = %if.else4
  %8 = load i32, ptr %attr.addr, align 4
  %cmp9 = icmp eq i32 %8, 5
  br i1 %cmp9, label %if.then10, label %if.else12

if.then10:                                        ; preds = %if.else8
  %9 = load ptr, ptr %nf, align 8
  %call11 = call noundef i32 @_ZNK6icu_7512NumberFormat23getMinimumIntegerDigitsEv(ptr noundef nonnull align 8 dereferenceable(356) %9)
  store i32 %call11, ptr %retval, align 4
  br label %return

if.else12:                                        ; preds = %if.else8
  %10 = load i32, ptr %attr.addr, align 4
  %cmp13 = icmp eq i32 %10, 6
  br i1 %cmp13, label %if.then14, label %if.else16

if.then14:                                        ; preds = %if.else12
  %11 = load ptr, ptr %nf, align 8
  %call15 = call noundef i32 @_ZNK6icu_7512NumberFormat24getMaximumFractionDigitsEv(ptr noundef nonnull align 8 dereferenceable(356) %11)
  store i32 %call15, ptr %retval, align 4
  br label %return

if.else16:                                        ; preds = %if.else12
  %12 = load i32, ptr %attr.addr, align 4
  %cmp17 = icmp eq i32 %12, 7
  br i1 %cmp17, label %if.then18, label %if.else20

if.then18:                                        ; preds = %if.else16
  %13 = load ptr, ptr %nf, align 8
  %call19 = call noundef i32 @_ZNK6icu_7512NumberFormat24getMinimumFractionDigitsEv(ptr noundef nonnull align 8 dereferenceable(356) %13)
  store i32 %call19, ptr %retval, align 4
  br label %return

if.else20:                                        ; preds = %if.else16
  %14 = load i32, ptr %attr.addr, align 4
  %cmp21 = icmp eq i32 %14, 8
  br i1 %cmp21, label %if.then22, label %if.else24

if.then22:                                        ; preds = %if.else20
  %15 = load ptr, ptr %nf, align 8
  %call23 = call noundef i32 @_ZNK6icu_7512NumberFormat24getMinimumFractionDigitsEv(ptr noundef nonnull align 8 dereferenceable(356) %15)
  store i32 %call23, ptr %retval, align 4
  br label %return

if.else24:                                        ; preds = %if.else20
  %16 = load i32, ptr %attr.addr, align 4
  %cmp25 = icmp eq i32 %16, 11
  br i1 %cmp25, label %if.then26, label %if.end

if.then26:                                        ; preds = %if.else24
  %17 = load ptr, ptr %nf, align 8
  %vtable27 = load ptr, ptr %17, align 8
  %vfn28 = getelementptr inbounds ptr, ptr %vtable27, i64 34
  %18 = load ptr, ptr %vfn28, align 8
  %call29 = call noundef i32 %18(ptr noundef nonnull align 8 dereferenceable(356) %17)
  store i32 %call29, ptr %retval, align 4
  br label %return

if.end:                                           ; preds = %if.else24
  br label %if.end30

if.end30:                                         ; preds = %if.end
  br label %if.end31

if.end31:                                         ; preds = %if.end30
  br label %if.end32

if.end32:                                         ; preds = %if.end31
  br label %if.end33

if.end33:                                         ; preds = %if.end32
  br label %if.end34

if.end34:                                         ; preds = %if.end33
  br label %if.end35

if.end35:                                         ; preds = %if.end34
  br label %if.end36

if.end36:                                         ; preds = %if.end35
  %19 = load ptr, ptr %nf, align 8
  %20 = icmp eq ptr %19, null
  br i1 %20, label %dynamic_cast.null, label %dynamic_cast.notnull

dynamic_cast.notnull:                             ; preds = %if.end36
  %21 = call ptr @__dynamic_cast(ptr %19, ptr @_ZTIN6icu_7512NumberFormatE, ptr @_ZTIN6icu_7513DecimalFormatE, i64 0) #8
  br label %dynamic_cast.end

dynamic_cast.null:                                ; preds = %if.end36
  br label %dynamic_cast.end

dynamic_cast.end:                                 ; preds = %dynamic_cast.null, %dynamic_cast.notnull
  %22 = phi ptr [ %21, %dynamic_cast.notnull ], [ null, %dynamic_cast.null ]
  store ptr %22, ptr %df, align 8
  %23 = load ptr, ptr %df, align 8
  %cmp37 = icmp ne ptr %23, null
  br i1 %cmp37, label %if.then38, label %if.end42

if.then38:                                        ; preds = %dynamic_cast.end
  store i32 0, ptr %ignoredStatus, align 4
  %24 = load ptr, ptr %df, align 8
  %25 = load i32, ptr %attr.addr, align 4
  %vtable39 = load ptr, ptr %24, align 8
  %vfn40 = getelementptr inbounds ptr, ptr %vtable39, i64 38
  %26 = load ptr, ptr %vfn40, align 8
  %call41 = call noundef i32 %26(ptr noundef nonnull align 8 dereferenceable(368) %24, i32 noundef %25, ptr noundef nonnull align 4 dereferenceable(4) %ignoredStatus)
  store i32 %call41, ptr %retval, align 4
  br label %return

if.end42:                                         ; preds = %dynamic_cast.end
  store i32 -1, ptr %retval, align 4
  br label %return

return:                                           ; preds = %if.end42, %if.then38, %if.then26, %if.then22, %if.then18, %if.then14, %if.then10, %if.then6, %if.then2, %if.then
  %27 = load i32, ptr %retval, align 4
  ret i32 %27
}