; Function Attrs: mustprogress uwtable
define noundef i32 @unum_getAttribute_75(ptr noundef %fmt, i32 noundef %attr) local_unnamed_addr #0 {
entry:
  %ignoredStatus = alloca i32, align 4
  switch i32 %attr, label %if.end36 [
    i32 19, label %if.then
    i32 3, label %if.then2
    i32 4, label %if.then6
    i32 5, label %if.then10
    i32 6, label %if.then14
    i32 7, label %if.then18
    i32 8, label %if.then22
    i32 11, label %if.then26
  ]

if.then:                                          ; preds = %entry
  %vtable = load ptr, ptr %fmt, align 8
  %vfn = getelementptr inbounds i8, ptr %vtable, i64 200
  %0 = load ptr, ptr %vfn, align 8
  %call = tail call noundef signext i8 %0(ptr noundef nonnull align 8 dereferenceable(356) %fmt)
  %conv = sext i8 %call to i32
  br label %return

if.then2:                                         ; preds = %entry
  %call3 = tail call noundef i32 @_ZNK6icu_7512NumberFormat23getMaximumIntegerDigitsEv(ptr noundef nonnull align 8 dereferenceable(356) %fmt)
  br label %return

if.then6:                                         ; preds = %entry
  %call7 = tail call noundef i32 @_ZNK6icu_7512NumberFormat23getMinimumIntegerDigitsEv(ptr noundef nonnull align 8 dereferenceable(356) %fmt)
  br label %return

if.then10:                                        ; preds = %entry
  %call11 = tail call noundef i32 @_ZNK6icu_7512NumberFormat23getMinimumIntegerDigitsEv(ptr noundef nonnull align 8 dereferenceable(356) %fmt)
  br label %return

if.then14:                                        ; preds = %entry
  %call15 = tail call noundef i32 @_ZNK6icu_7512NumberFormat24getMaximumFractionDigitsEv(ptr noundef nonnull align 8 dereferenceable(356) %fmt)
  br label %return

if.then18:                                        ; preds = %entry
  %call19 = tail call noundef i32 @_ZNK6icu_7512NumberFormat24getMinimumFractionDigitsEv(ptr noundef nonnull align 8 dereferenceable(356) %fmt)
  br label %return

if.then22:                                        ; preds = %entry
  %call23 = tail call noundef i32 @_ZNK6icu_7512NumberFormat24getMinimumFractionDigitsEv(ptr noundef nonnull align 8 dereferenceable(356) %fmt)
  br label %return

if.then26:                                        ; preds = %entry
  %vtable27 = load ptr, ptr %fmt, align 8
  %vfn28 = getelementptr inbounds i8, ptr %vtable27, i64 272
  %1 = load ptr, ptr %vfn28, align 8
  %call29 = tail call noundef i32 %1(ptr noundef nonnull align 8 dereferenceable(356) %fmt)
  br label %return

if.end36:                                         ; preds = %entry
  %2 = icmp eq ptr %fmt, null
  br i1 %2, label %return, label %dynamic_cast.end

dynamic_cast.end:                                 ; preds = %if.end36
  %3 = tail call ptr @__dynamic_cast(ptr nonnull %fmt, ptr nonnull @_ZTIN6icu_7512NumberFormatE, ptr nonnull @_ZTIN6icu_7513DecimalFormatE, i64 0) #10
  %cmp37.not = icmp eq ptr %3, null
  br i1 %cmp37.not, label %return, label %if.then38

if.then38:                                        ; preds = %dynamic_cast.end
  store i32 0, ptr %ignoredStatus, align 4
  %vtable39 = load ptr, ptr %3, align 8
  %vfn40 = getelementptr inbounds i8, ptr %vtable39, i64 304
  %4 = load ptr, ptr %vfn40, align 8
  %call41 = call noundef i32 %4(ptr noundef nonnull align 8 dereferenceable(368) %3, i32 noundef %attr, ptr noundef nonnull align 4 dereferenceable(4) %ignoredStatus)
  br label %return

return:                                           ; preds = %if.end36, %dynamic_cast.end, %if.then38, %if.then26, %if.then22, %if.then18, %if.then14, %if.then10, %if.then6, %if.then2, %if.then
  %retval.0 = phi i32 [ %conv, %if.then ], [ %call3, %if.then2 ], [ %call7, %if.then6 ], [ %call11, %if.then10 ], [ %call15, %if.then14 ], [ %call19, %if.then18 ], [ %call23, %if.then22 ], [ %call29, %if.then26 ], [ %call41, %if.then38 ], [ -1, %dynamic_cast.end ], [ -1, %if.end36 ]
  ret i32 %retval.0
}